target datalayout = "e-m:e-p270:32:32-p271:32:32-p272:64:64-i64:64-i128:128-f80:128-n8:16:32:64-S128"
target triple = "x86_64-pc-linux-gnu"

@glad_glGetProgramiv = external global ptr, align 8
@glad_glCreateProgram = external global ptr, align 8
@glad_glAttachShader = external global ptr, align 8
@glad_glLinkProgram = external global ptr, align 8
@.str.9 = private unnamed_addr constant [15 x i8] c"glLinkProgram:\00", align 1
@glad_glDeleteShader = external global ptr, align 8

; Function Attrs: mustprogress uwtable
define dso_local noundef i32 @_Z22CreateProgramFromFilesPKcS0_(ptr noundef %0, ptr noundef %1) #0 {
  %3 = alloca i32, align 4
  %4 = alloca ptr, align 8
  %5 = alloca ptr, align 8
  %6 = alloca i32, align 4
  %7 = alloca i32, align 4
  %8 = alloca i32, align 4
  %9 = alloca i32, align 4
  %10 = alloca i32, align 4
  store ptr %0, ptr %4, align 8, !tbaa !8
  store ptr %1, ptr %5, align 8, !tbaa !8
  call void @llvm.lifetime.start.p0(i64 4, ptr %6) #5
  %11 = load ptr, ptr %4, align 8, !tbaa !8
  %12 = call noundef i32 @_ZL21sCreateShaderFromFilePKcj(ptr noundef %11, i32 noundef 35633)
  store i32 %12, ptr %6, align 4, !tbaa !10
  %13 = load i32, ptr %6, align 4, !tbaa !10
  %14 = icmp eq i32 %13, 0
  br i1 %14, label %15, label %16

15:                                               ; preds = %2
  store i32 0, ptr %3, align 4
  store i32 1, ptr %7, align 4
  br label %48

16:                                               ; preds = %2
  call void @llvm.lifetime.start.p0(i64 4, ptr %8) #5
  %17 = load ptr, ptr %5, align 8, !tbaa !8
  %18 = call noundef i32 @_ZL21sCreateShaderFromFilePKcj(ptr noundef %17, i32 noundef 35632)
  store i32 %18, ptr %8, align 4, !tbaa !10
  %19 = load i32, ptr %8, align 4, !tbaa !10
  %20 = icmp eq i32 %19, 0
  br i1 %20, label %21, label %22

21:                                               ; preds = %16
  store i32 0, ptr %3, align 4
  store i32 1, ptr %7, align 4
  br label %47

22:                                               ; preds = %16
  call void @llvm.lifetime.start.p0(i64 4, ptr %9) #5
  %23 = load ptr, ptr @glad_glCreateProgram, align 8, !tbaa !4
  %24 = call i32 %23()
  store i32 %24, ptr %9, align 4, !tbaa !10
  %25 = load ptr, ptr @glad_glAttachShader, align 8, !tbaa !4
  %26 = load i32, ptr %9, align 4, !tbaa !10
  %27 = load i32, ptr %6, align 4, !tbaa !10
  call void %25(i32 noundef %26, i32 noundef %27)
  %28 = load ptr, ptr @glad_glAttachShader, align 8, !tbaa !4
  %29 = load i32, ptr %9, align 4, !tbaa !10
  %30 = load i32, ptr %8, align 4, !tbaa !10
  call void %28(i32 noundef %29, i32 noundef %30)
  %31 = load ptr, ptr @glad_glLinkProgram, align 8, !tbaa !4
  %32 = load i32, ptr %9, align 4, !tbaa !10
  call void %31(i32 noundef %32)
  call void @llvm.lifetime.start.p0(i64 4, ptr %10) #5
  store i32 0, ptr %10, align 4, !tbaa !10
  %33 = load ptr, ptr @glad_glGetProgramiv, align 8, !tbaa !4
  %34 = load i32, ptr %9, align 4, !tbaa !10
  call void %33(i32 noundef %34, i32 noundef 35714, ptr noundef %10)
  %35 = load i32, ptr %10, align 4, !tbaa !10
  %36 = icmp eq i32 %35, 0
  br i1 %36, label %37, label %40

37:                                               ; preds = %22
  %38 = call i32 (ptr, ...) @printf(ptr noundef @.str.9)
  %39 = load i32, ptr %9, align 4, !tbaa !10
  call void @_Z10PrintLogGLj(i32 noundef %39)
  store i32 0, ptr %3, align 4
  store i32 1, ptr %7, align 4
  br label %46

40:                                               ; preds = %22
  %41 = load ptr, ptr @glad_glDeleteShader, align 8, !tbaa !4
  %42 = load i32, ptr %6, align 4, !tbaa !10
  call void %41(i32 noundef %42)
  %43 = load ptr, ptr @glad_glDeleteShader, align 8, !tbaa !4
  %44 = load i32, ptr %8, align 4, !tbaa !10
  call void %43(i32 noundef %44)
  %45 = load i32, ptr %9, align 4, !tbaa !10
  store i32 %45, ptr %3, align 4
  store i32 1, ptr %7, align 4
  br label %46

46:                                               ; preds = %40, %37
  call void @llvm.lifetime.end.p0(i64 4, ptr %10) #5
  call void @llvm.lifetime.end.p0(i64 4, ptr %9) #5
  br label %47

47:                                               ; preds = %46, %21
  call void @llvm.lifetime.end.p0(i64 4, ptr %8) #5
  br label %48

48:                                               ; preds = %47, %15
  call void @llvm.lifetime.end.p0(i64 4, ptr %6) #5
  %49 = load i32, ptr %3, align 4
  ret i32 %49
}