; Function Attrs: mustprogress uwtable
define dso_local noundef i32 @_Z22CreateProgramFromFilesPKcS0_(ptr noundef %0, ptr noundef %1) local_unnamed_addr #0 {
  %3 = alloca i32, align 4
  %4 = tail call fastcc noundef i32 @_ZL21sCreateShaderFromFilePKcj(ptr noundef %0, i32 noundef 35633)
  %5 = icmp eq i32 %4, 0
  br i1 %5, label %24, label %6

6:                                                ; preds = %2
  %7 = tail call fastcc noundef i32 @_ZL21sCreateShaderFromFilePKcj(ptr noundef %1, i32 noundef 35632)
  %8 = icmp eq i32 %7, 0
  br i1 %8, label %24, label %9

9:                                                ; preds = %6
  %10 = load ptr, ptr @glad_glCreateProgram, align 8, !tbaa !4
  %11 = tail call i32 %10()
  %12 = load ptr, ptr @glad_glAttachShader, align 8, !tbaa !4
  tail call void %12(i32 noundef %11, i32 noundef %4)
  %13 = load ptr, ptr @glad_glAttachShader, align 8, !tbaa !4
  tail call void %13(i32 noundef %11, i32 noundef %7)
  %14 = load ptr, ptr @glad_glLinkProgram, align 8, !tbaa !4
  tail call void %14(i32 noundef %11)
  call void @llvm.lifetime.start.p0(i64 4, ptr nonnull %3) #6
  store i32 0, ptr %3, align 4, !tbaa !8
  %15 = load ptr, ptr @glad_glGetProgramiv, align 8, !tbaa !4
  call void %15(i32 noundef %11, i32 noundef 35714, ptr noundef nonnull %3)
  %16 = load i32, ptr %3, align 4, !tbaa !8
  %17 = icmp eq i32 %16, 0
  br i1 %17, label %18, label %20

18:                                               ; preds = %9
  %19 = call i32 (ptr, ...) @printf(ptr noundef nonnull dereferenceable(1) @.str.9)
  call void @_Z10PrintLogGLj(i32 noundef %11)
  br label %23

20:                                               ; preds = %9
  %21 = load ptr, ptr @glad_glDeleteShader, align 8, !tbaa !4
  call void %21(i32 noundef %4)
  %22 = load ptr, ptr @glad_glDeleteShader, align 8, !tbaa !4
  call void %22(i32 noundef %7)
  br label %23

23:                                               ; preds = %20, %18
  %.2 = phi i32 [ 0, %18 ], [ %11, %20 ]
  call void @llvm.lifetime.end.p0(i64 4, ptr nonnull %3) #6
  br label %24

24:                                               ; preds = %23, %6, %2
  %.0 = phi i32 [ 0, %2 ], [ %.2, %23 ], [ 0, %6 ]
  ret i32 %.0
}